; Function Attrs: mustprogress nofree norecurse nosync nounwind willreturn memory(read, inaccessiblemem: none) uwtable
define dso_local noundef i32 @_ZN5ImGui19TableGetColumnFlagsEi(i32 noundef %0) local_unnamed_addr #12 {
  %2 = load ptr, ptr @GImGui, align 8, !tbaa !4
  %3 = getelementptr inbounds nuw i8, ptr %2, i64 8536
  %4 = load ptr, ptr %3, align 8, !tbaa !259
  %.not = icmp eq ptr %4, null
  br i1 %.not, label %26, label %5

5:                                                ; preds = %1
  %6 = icmp slt i32 %0, 0
  br i1 %6, label %7, label %10

7:                                                ; preds = %5
  %8 = getelementptr inbounds nuw i8, ptr %4, i64 116
  %9 = load i32, ptr %8, align 4, !tbaa !242
  br label %10

10:                                               ; preds = %7, %5
  %.010 = phi i32 [ %9, %7 ], [ %0, %5 ]
  %11 = getelementptr inbounds nuw i8, ptr %4, i64 108
  %12 = load i32, ptr %11, align 4, !tbaa !207
  %13 = icmp eq i32 %.010, %12
  br i1 %13, label %14, label %20

14:                                               ; preds = %10
  %15 = getelementptr inbounds nuw i8, ptr %4, i64 522
  %16 = load i16, ptr %15, align 2, !tbaa !296
  %17 = sext i16 %16 to i32
  %18 = icmp eq i32 %.010, %17
  %19 = select i1 %18, i32 134217728, i32 0
  br label %26

20:                                               ; preds = %10
  %21 = getelementptr inbounds nuw i8, ptr %4, i64 24
  %22 = load ptr, ptr %21, align 8, !tbaa !271
  %23 = sext i32 %.010 to i64
  %24 = getelementptr inbounds %struct.ImGuiTableColumn, ptr %22, i64 %23
  %25 = load i32, ptr %24, align 4, !tbaa !352
  br label %26

26:                                               ; preds = %1, %20, %14
  %.0 = phi i32 [ %19, %14 ], [ %25, %20 ], [ 0, %1 ]
  ret i32 %.0
}